; Function Attrs: nounwind uwtable
define internal void @gtdes(ptr noundef %0) #0 {
  %2 = getelementptr inbounds nuw i8, ptr %0, i64 128
  %3 = getelementptr inbounds nuw i8, ptr %0, i64 168
  %4 = load ptr, ptr %3, align 8, !tbaa !13
  %5 = getelementptr inbounds nuw i8, ptr %4, i64 48
  %6 = load ptr, ptr %5, align 8, !tbaa !29
  %7 = load ptr, ptr %6, align 8, !tbaa !18
  %.not6.i = icmp eq ptr %7, null
  br i1 %.not6.i, label %pmix_obj_run_destructors.exit, label %.lr.ph.i

.lr.ph.i:                                         ; preds = %1, %.lr.ph.i
  %8 = phi ptr [ %10, %.lr.ph.i ], [ %7, %1 ]
  %.07.i = phi ptr [ %9, %.lr.ph.i ], [ %6, %1 ]
  tail call void %8(ptr noundef nonnull %2) #16
  %9 = getelementptr inbounds nuw i8, ptr %.07.i, i64 8
  %10 = load ptr, ptr %9, align 8, !tbaa !18
  %.not.i = icmp eq ptr %10, null
  br i1 %.not.i, label %pmix_obj_run_destructors.exit, label %.lr.ph.i, !llvm.loop !30

pmix_obj_run_destructors.exit:                    ; preds = %.lr.ph.i, %1
  %11 = getelementptr inbounds nuw i8, ptr %0, i64 288
  %12 = tail call i32 @pthread_cond_destroy(ptr noundef nonnull %11) #16
  %13 = getelementptr inbounds nuw i8, ptr %0, i64 376
  %14 = load ptr, ptr %13, align 8, !tbaa !31
  %.not = icmp eq ptr %14, null
  br i1 %.not, label %18, label %15

15:                                               ; preds = %pmix_obj_run_destructors.exit
  %16 = getelementptr inbounds nuw i8, ptr %0, i64 384
  %17 = load i64, ptr %16, align 8, !tbaa !32
  tail call void @PMIx_Proc_free(ptr noundef nonnull %14, i64 noundef %17) #16
  store ptr null, ptr %13, align 8, !tbaa !31
  br label %18

18:                                               ; preds = %15, %pmix_obj_run_destructors.exit
  %19 = getelementptr inbounds nuw i8, ptr %0, i64 392
  %20 = load ptr, ptr %19, align 8, !tbaa !33
  %.not15 = icmp eq ptr %20, null
  br i1 %.not15, label %24, label %21

21:                                               ; preds = %18
  %22 = getelementptr inbounds nuw i8, ptr %0, i64 400
  %23 = load i64, ptr %22, align 8, !tbaa !34
  tail call void @PMIx_Info_free(ptr noundef nonnull %20, i64 noundef %23) #16
  store ptr null, ptr %19, align 8, !tbaa !33
  br label %24

24:                                               ; preds = %21, %18
  %25 = getelementptr inbounds nuw i8, ptr %0, i64 368
  %26 = load ptr, ptr %25, align 8, !tbaa !35
  %.not16 = icmp eq ptr %26, null
  br i1 %.not16, label %28, label %27

27:                                               ; preds = %24
  tail call void @free(ptr noundef nonnull %26) #16
  store ptr null, ptr %25, align 8, !tbaa !35
  br label %28

28:                                               ; preds = %27, %24
  ret void
}